; Function Attrs: mustprogress uwtable
define noundef range(i64 -60, 1) i64 @_ZN11duckdb_zstd28ZSTD_CCtx_refPrefix_advancedEPNS_11ZSTD_CCtx_sEPKvmNS_22ZSTD_dictContentType_eE(ptr noundef captures(none) %0, ptr noundef %1, i64 noundef %2, i32 noundef %3) local_unnamed_addr #2 {
  %5 = getelementptr inbounds nuw i8, ptr %0, i64 3608
  %6 = load i32, ptr %5, align 8, !tbaa !99
  %.not = icmp eq i32 %6, 0
  br i1 %.not, label %7, label %14

7:                                                ; preds = %4
  tail call fastcc void @_ZN11duckdb_zstdL18ZSTD_clearAllDictsEPNS_11ZSTD_CCtx_sE(ptr noundef nonnull %0)
  %8 = icmp ne ptr %1, null
  %9 = icmp ne i64 %2, 0
  %or.cond = and i1 %8, %9
  br i1 %or.cond, label %10, label %14

10:                                               ; preds = %7
  %11 = getelementptr inbounds nuw i8, ptr %0, i64 3704
  store ptr %1, ptr %11, align 8, !tbaa !143
  %12 = getelementptr inbounds nuw i8, ptr %0, i64 3712
  store i64 %2, ptr %12, align 8, !tbaa !144
  %13 = getelementptr inbounds nuw i8, ptr %0, i64 3720
  store i32 %3, ptr %13, align 8, !tbaa !145
  br label %14

14:                                               ; preds = %7, %10, %4
  %.0 = phi i64 [ -60, %4 ], [ 0, %10 ], [ 0, %7 ]
  ret i64 %.0
}